target datalayout = "e-m:e-p270:32:32-p271:32:32-p272:64:64-i64:64-i128:128-f80:128-n8:16:32:64-S128"
target triple = "x86_64-pc-linux-gnu"

%class.tbv_manager = type { %class.fixed_bit_vector_manager, %class.ptr_vector }
%class.fixed_bit_vector_manager = type <{ %class.small_object_allocator, i32, i32, i32, i32, %class.fixed_bit_vector, [4 x i8] }>
%class.small_object_allocator = type { [32 x ptr], [32 x ptr], i64 }
%class.fixed_bit_vector = type { [1 x i32] }
%class.ptr_vector = type { %class.vector }
%class.vector = type { ptr }
%class.rational = type { %class.mpq }
%class.mpq = type { %class.mpz, %class.mpz }
%class.mpz = type { i32, i8, ptr }

@_ZN8rational13g_mpq_managerE = external global ptr, align 8

; Function Attrs: inlinehint mustprogress nounwind uwtable
define linkonce_odr hidden noundef zeroext i1 @_ZNK3mpz8is_smallEv(ptr noundef nonnull align 8 dereferenceable(16) %0) #5 comdat align 2 {
  %2 = alloca ptr, align 8
  store ptr %0, ptr %2, align 8, !tbaa !78
  %3 = load ptr, ptr %2, align 8
  %4 = getelementptr inbounds nuw %class.mpz, ptr %3, i32 0, i32 1
  %5 = load i8, ptr %4, align 4
  %6 = and i8 %5, 1
  %7 = zext i8 %6 to i32
  %8 = icmp eq i32 %7, 0
  ret i1 %8
}

; Function Attrs: inlinehint mustprogress nounwind uwtable
define linkonce_odr hidden noundef i32 @_ZNK3mpz5valueEv(ptr noundef nonnull align 8 dereferenceable(16) %0) #5 comdat align 2 {
  %2 = alloca ptr, align 8
  store ptr %0, ptr %2, align 8, !tbaa !78
  %3 = load ptr, ptr %2, align 8
  %4 = getelementptr inbounds nuw %class.mpz, ptr %3, i32 0, i32 0
  %5 = load i32, ptr %4, align 8, !tbaa !80
  ret i32 %5
}

; Function Attrs: mustprogress uwtable
define linkonce_odr hidden noundef zeroext i1 @_ZN11mpz_managerILb1EE8is_smallERK3mpz(ptr noundef nonnull align 8 dereferenceable(16) %0) #6 comdat align 2 {
  %2 = alloca ptr, align 8
  store ptr %0, ptr %2, align 8, !tbaa !78
  %3 = load ptr, ptr %2, align 8, !tbaa !78
  %4 = call noundef zeroext i1 @_ZNK3mpz8is_smallEv(ptr noundef nonnull align 8 dereferenceable(16) %3)
  ret i1 %4
}

; Function Attrs: mustprogress uwtable
define linkonce_odr hidden noundef zeroext i1 @_ZN11mpz_managerILb1EE6is_oneERK3mpz(ptr noundef nonnull align 8 dereferenceable(16) %0) #6 comdat align 2 {
  %2 = alloca ptr, align 8
  store ptr %0, ptr %2, align 8, !tbaa !78
  %3 = load ptr, ptr %2, align 8, !tbaa !78
  %4 = call noundef zeroext i1 @_ZN11mpz_managerILb1EE8is_smallERK3mpz(ptr noundef nonnull align 8 dereferenceable(16) %3)
  br i1 %4, label %5, label %9

5:                                                ; preds = %1
  %6 = load ptr, ptr %2, align 8, !tbaa !78
  %7 = call noundef i32 @_ZNK3mpz5valueEv(ptr noundef nonnull align 8 dereferenceable(16) %6)
  %8 = icmp eq i32 %7, 1
  br label %9

9:                                                ; preds = %5, %1
  %10 = phi i1 [ false, %1 ], [ %8, %5 ]
  ret i1 %10
}

; Function Attrs: mustprogress nounwind uwtable
define linkonce_odr hidden noundef i32 @_ZN16fixed_bit_vector12get_pos_maskEj(i32 noundef %0) #4 comdat align 2 {
  %2 = alloca i32, align 4
  store i32 %0, ptr %2, align 4, !tbaa !20
  %3 = load i32, ptr %2, align 4, !tbaa !20
  %4 = urem i32 %3, 32
  %5 = shl i32 1, %4
  ret i32 %5
}

; Function Attrs: mustprogress nounwind uwtable
define linkonce_odr hidden noundef nonnull align 4 dereferenceable(4) ptr @_ZN16fixed_bit_vector12get_bit_wordEj(ptr noundef nonnull align 4 dereferenceable(4) %0, i32 noundef %1) #4 comdat align 2 {
  %3 = alloca ptr, align 8
  %4 = alloca i32, align 4
  store ptr %0, ptr %3, align 8, !tbaa !16
  store i32 %1, ptr %4, align 4, !tbaa !20
  %5 = load ptr, ptr %3, align 8
  %6 = getelementptr inbounds nuw %class.fixed_bit_vector, ptr %5, i32 0, i32 0
  %7 = load i32, ptr %4, align 4, !tbaa !20
  %8 = udiv i32 %7, 32
  %9 = zext i32 %8 to i64
  %10 = getelementptr inbounds nuw [1 x i32], ptr %6, i64 0, i64 %9
  ret ptr %10
}

; Function Attrs: mustprogress uwtable
define linkonce_odr hidden noundef zeroext i1 @_ZN11mpq_managerILb1EE6is_oneERK3mpz(ptr noundef nonnull align 8 dereferenceable(16) %0) #6 comdat align 2 {
  %2 = alloca ptr, align 8
  store ptr %0, ptr %2, align 8, !tbaa !78
  %3 = load ptr, ptr %2, align 8, !tbaa !78
  %4 = call noundef zeroext i1 @_ZN11mpz_managerILb1EE6is_oneERK3mpz(ptr noundef nonnull align 8 dereferenceable(16) %3)
  ret i1 %4
}

; Function Attrs: mustprogress uwtable
define linkonce_odr hidden void @_ZN16fixed_bit_vector3setEjb(ptr noundef nonnull align 4 dereferenceable(4) %0, i32 noundef %1, i1 noundef zeroext %2) #6 comdat align 2 {
  %4 = alloca ptr, align 8
  %5 = alloca i32, align 4
  %6 = alloca i8, align 1
  %7 = alloca i32, align 4
  store ptr %0, ptr %4, align 8, !tbaa !16
  store i32 %1, ptr %5, align 4, !tbaa !20
  %8 = zext i1 %2 to i8
  store i8 %8, ptr %6, align 1, !tbaa !3
  %9 = load ptr, ptr %4, align 8
  call void @llvm.lifetime.start.p0(i64 4, ptr %7) #3
  %10 = load i8, ptr %6, align 1, !tbaa !3, !range !39, !noundef !40
  %11 = trunc i8 %10 to i1
  %12 = zext i1 %11 to i32
  store i32 %12, ptr %7, align 4, !tbaa !20
  %13 = load i32, ptr %7, align 4, !tbaa !20
  %14 = sub nsw i32 0, %13
  %15 = load i32, ptr %5, align 4, !tbaa !20
  %16 = call noundef nonnull align 4 dereferenceable(4) ptr @_ZN16fixed_bit_vector12get_bit_wordEj(ptr noundef nonnull align 4 dereferenceable(4) %9, i32 noundef %15)
  %17 = load i32, ptr %16, align 4, !tbaa !20
  %18 = xor i32 %14, %17
  %19 = load i32, ptr %5, align 4, !tbaa !20
  %20 = call noundef i32 @_ZN16fixed_bit_vector12get_pos_maskEj(i32 noundef %19)
  %21 = and i32 %18, %20
  %22 = load i32, ptr %5, align 4, !tbaa !20
  %23 = call noundef nonnull align 4 dereferenceable(4) ptr @_ZN16fixed_bit_vector12get_bit_wordEj(ptr noundef nonnull align 4 dereferenceable(4) %9, i32 noundef %22)
  %24 = load i32, ptr %23, align 4, !tbaa !20
  %25 = xor i32 %24, %21
  store i32 %25, ptr %23, align 4, !tbaa !20
  call void @llvm.lifetime.end.p0(i64 4, ptr %7) #3
  ret void
}

; Function Attrs: mustprogress uwtable
define linkonce_odr hidden noundef i64 @_ZNK11mpq_managerILb1EE10get_uint64ERK3mpz(ptr noundef nonnull align 8 dereferenceable(728) %0, ptr noundef nonnull align 8 dereferenceable(16) %1) #6 comdat align 2 {
  %3 = alloca ptr, align 8
  %4 = alloca ptr, align 8
  store ptr %0, ptr %3, align 8, !tbaa !45
  store ptr %1, ptr %4, align 8, !tbaa !78
  %5 = load ptr, ptr %3, align 8
  %6 = load ptr, ptr %4, align 8, !tbaa !78
  %7 = call noundef i64 @_ZNK11mpz_managerILb1EE10get_uint64ERK3mpz(ptr noundef nonnull align 8 dereferenceable(600) %5, ptr noundef nonnull align 8 dereferenceable(16) %6)
  ret i64 %7
}

; Function Attrs: mustprogress uwtable
define linkonce_odr hidden noundef zeroext i1 @_ZNK11mpq_managerILb1EE9is_uint64ERK3mpz(ptr noundef nonnull align 8 dereferenceable(728) %0, ptr noundef nonnull align 8 dereferenceable(16) %1) #6 comdat align 2 {
  %3 = alloca ptr, align 8
  %4 = alloca ptr, align 8
  store ptr %0, ptr %3, align 8, !tbaa !45
  store ptr %1, ptr %4, align 8, !tbaa !78
  %5 = load ptr, ptr %3, align 8
  %6 = load ptr, ptr %4, align 8, !tbaa !78
  %7 = call noundef zeroext i1 @_ZNK11mpz_managerILb1EE9is_uint64ERK3mpz(ptr noundef nonnull align 8 dereferenceable(600) %5, ptr noundef nonnull align 8 dereferenceable(16) %6)
  ret i1 %7
}

; Function Attrs: mustprogress uwtable
define linkonce_odr hidden noundef zeroext i1 @_ZN11mpq_managerILb1EE6is_intERK3mpq(ptr noundef nonnull align 8 dereferenceable(32) %0) #6 comdat align 2 {
  %2 = alloca ptr, align 8
  store ptr %0, ptr %2, align 8, !tbaa !76
  %3 = load ptr, ptr %2, align 8, !tbaa !76
  %4 = getelementptr inbounds nuw %class.mpq, ptr %3, i32 0, i32 1
  %5 = call noundef zeroext i1 @_ZN11mpq_managerILb1EE6is_oneERK3mpz(ptr noundef nonnull align 8 dereferenceable(16) %4)
  ret i1 %5
}

; Function Attrs: mustprogress uwtable
define linkonce_odr hidden void @_ZN24fixed_bit_vector_manager3setER16fixed_bit_vectorjb(ptr noundef nonnull align 8 dereferenceable(540) %0, ptr noundef nonnull align 4 dereferenceable(4) %1, i32 noundef %2, i1 noundef zeroext %3) #6 comdat align 2 {
  %5 = alloca ptr, align 8
  %6 = alloca ptr, align 8
  %7 = alloca i32, align 4
  %8 = alloca i8, align 1
  store ptr %0, ptr %5, align 8, !tbaa !12
  store ptr %1, ptr %6, align 8, !tbaa !16
  store i32 %2, ptr %7, align 4, !tbaa !20
  %9 = zext i1 %3 to i8
  store i8 %9, ptr %8, align 1, !tbaa !3
  %10 = load ptr, ptr %6, align 8, !tbaa !16
  %11 = load i32, ptr %7, align 4, !tbaa !20
  %12 = load i8, ptr %8, align 1, !tbaa !3, !range !39, !noundef !40
  %13 = trunc i8 %12 to i1
  call void @_ZN16fixed_bit_vector3setEjb(ptr noundef nonnull align 4 dereferenceable(4) %10, i32 noundef %11, i1 noundef zeroext %13)
  ret void
}

; Function Attrs: mustprogress uwtable
define linkonce_odr hidden noundef zeroext i1 @_ZN11mpq_managerILb1EE7get_bitERK3mpqj(ptr noundef nonnull align 8 dereferenceable(728) %0, ptr noundef nonnull align 8 dereferenceable(32) %1, i32 noundef %2) #6 comdat align 2 {
  %4 = alloca ptr, align 8
  %5 = alloca ptr, align 8
  %6 = alloca i32, align 4
  store ptr %0, ptr %4, align 8, !tbaa !45
  store ptr %1, ptr %5, align 8, !tbaa !76
  store i32 %2, ptr %6, align 4, !tbaa !20
  %7 = load ptr, ptr %4, align 8
  %8 = load ptr, ptr %5, align 8, !tbaa !76
  %9 = getelementptr inbounds nuw %class.mpq, ptr %8, i32 0, i32 0
  %10 = load i32, ptr %6, align 4, !tbaa !20
  %11 = call noundef zeroext i1 @_ZN11mpz_managerILb1EE7get_bitERK3mpzj(ptr noundef nonnull align 8 dereferenceable(600) %7, ptr noundef nonnull align 8 dereferenceable(16) %9, i32 noundef %10)
  ret i1 %11
}

; Function Attrs: mustprogress uwtable
define linkonce_odr hidden noundef i64 @_ZNK11mpq_managerILb1EE10get_uint64ERK3mpq(ptr noundef nonnull align 8 dereferenceable(728) %0, ptr noundef nonnull align 8 dereferenceable(32) %1) #6 comdat align 2 {
  %3 = alloca ptr, align 8
  %4 = alloca ptr, align 8
  store ptr %0, ptr %3, align 8, !tbaa !45
  store ptr %1, ptr %4, align 8, !tbaa !76
  %5 = load ptr, ptr %3, align 8
  %6 = load ptr, ptr %4, align 8, !tbaa !76
  %7 = getelementptr inbounds nuw %class.mpq, ptr %6, i32 0, i32 0
  %8 = call noundef i64 @_ZNK11mpq_managerILb1EE10get_uint64ERK3mpz(ptr noundef nonnull align 8 dereferenceable(728) %5, ptr noundef nonnull align 8 dereferenceable(16) %7)
  ret i64 %8
}

; Function Attrs: mustprogress uwtable
define linkonce_odr hidden noundef zeroext i1 @_ZNK11mpq_managerILb1EE9is_uint64ERK3mpq(ptr noundef nonnull align 8 dereferenceable(728) %0, ptr noundef nonnull align 8 dereferenceable(32) %1) #6 comdat align 2 {
  %3 = alloca ptr, align 8
  %4 = alloca ptr, align 8
  store ptr %0, ptr %3, align 8, !tbaa !45
  store ptr %1, ptr %4, align 8, !tbaa !76
  %5 = load ptr, ptr %3, align 8
  %6 = load ptr, ptr %4, align 8, !tbaa !76
  %7 = call noundef zeroext i1 @_ZN11mpq_managerILb1EE6is_intERK3mpq(ptr noundef nonnull align 8 dereferenceable(32) %6)
  br i1 %7, label %8, label %12

8:                                                ; preds = %2
  %9 = load ptr, ptr %4, align 8, !tbaa !76
  %10 = getelementptr inbounds nuw %class.mpq, ptr %9, i32 0, i32 0
  %11 = call noundef zeroext i1 @_ZNK11mpq_managerILb1EE9is_uint64ERK3mpz(ptr noundef nonnull align 8 dereferenceable(728) %5, ptr noundef nonnull align 8 dereferenceable(16) %10)
  br label %12

12:                                               ; preds = %8, %2
  %13 = phi i1 [ false, %2 ], [ %11, %8 ]
  ret i1 %13
}

; Function Attrs: mustprogress nounwind uwtable
define linkonce_odr hidden noundef nonnull align 8 dereferenceable(728) ptr @_ZN8rational1mEv() #4 comdat align 2 {
  %1 = load ptr, ptr @_ZN8rational13g_mpq_managerE, align 8, !tbaa !45
  ret ptr %1
}

; Function Attrs: mustprogress uwtable
define hidden void @_ZN11tbv_manager3setER3tbvj4tbit(ptr noundef nonnull align 8 dereferenceable(552) %0, ptr noundef nonnull align 4 dereferenceable(4) %1, i32 noundef %2, i32 noundef %3) #6 align 2 {
  %5 = alloca ptr, align 8
  %6 = alloca ptr, align 8
  %7 = alloca i32, align 4
  %8 = alloca i32, align 4
  store ptr %0, ptr %5, align 8, !tbaa !7
  store ptr %1, ptr %6, align 8, !tbaa !14
  store i32 %2, ptr %7, align 4, !tbaa !20
  store i32 %3, ptr %8, align 4, !tbaa !26
  %9 = load ptr, ptr %5, align 8
  %10 = getelementptr inbounds nuw %class.tbv_manager, ptr %9, i32 0, i32 0
  %11 = load ptr, ptr %6, align 8, !tbaa !14
  %12 = load i32, ptr %7, align 4, !tbaa !20
  %13 = mul i32 2, %12
  %14 = load i32, ptr %8, align 4, !tbaa !26
  %15 = and i32 %14, 2
  %16 = icmp ne i32 %15, 0
  call void @_ZN24fixed_bit_vector_manager3setER16fixed_bit_vectorjb(ptr noundef nonnull align 8 dereferenceable(540) %10, ptr noundef nonnull align 4 dereferenceable(4) %11, i32 noundef %13, i1 noundef zeroext %16)
  %17 = getelementptr inbounds nuw %class.tbv_manager, ptr %9, i32 0, i32 0
  %18 = load ptr, ptr %6, align 8, !tbaa !14
  %19 = load i32, ptr %7, align 4, !tbaa !20
  %20 = mul i32 2, %19
  %21 = add i32 %20, 1
  %22 = load i32, ptr %8, align 4, !tbaa !26
  %23 = and i32 %22, 1
  %24 = icmp ne i32 %23, 0
  call void @_ZN24fixed_bit_vector_manager3setER16fixed_bit_vectorjb(ptr noundef nonnull align 8 dereferenceable(540) %17, ptr noundef nonnull align 4 dereferenceable(4) %18, i32 noundef %21, i1 noundef zeroext %24)
  ret void
}

; Function Attrs: mustprogress uwtable
define linkonce_odr hidden noundef zeroext i1 @_ZNK8rational7get_bitEj(ptr noundef nonnull align 8 dereferenceable(32) %0, i32 noundef %1) #6 comdat align 2 {
  %3 = alloca ptr, align 8
  %4 = alloca i32, align 4
  store ptr %0, ptr %3, align 8, !tbaa !41
  store i32 %1, ptr %4, align 4, !tbaa !20
  %5 = load ptr, ptr %3, align 8
  %6 = call noundef nonnull align 8 dereferenceable(728) ptr @_ZN8rational1mEv()
  %7 = getelementptr inbounds nuw %class.rational, ptr %5, i32 0, i32 0
  %8 = load i32, ptr %4, align 4, !tbaa !20
  %9 = call noundef zeroext i1 @_ZN11mpq_managerILb1EE7get_bitERK3mpqj(ptr noundef nonnull align 8 dereferenceable(728) %6, ptr noundef nonnull align 8 dereferenceable(32) %7, i32 noundef %8)
  ret i1 %9
}

; Function Attrs: mustprogress uwtable
define hidden void @_ZN11tbv_manager3setER3tbvmjj(ptr noundef nonnull align 8 dereferenceable(552) %0, ptr noundef nonnull align 4 dereferenceable(4) %1, i64 noundef %2, i32 noundef %3, i32 noundef %4) #6 align 2 {
  %6 = alloca ptr, align 8
  %7 = alloca ptr, align 8
  %8 = alloca i64, align 8
  %9 = alloca i32, align 4
  %10 = alloca i32, align 4
  %11 = alloca i32, align 4
  store ptr %0, ptr %6, align 8, !tbaa !7
  store ptr %1, ptr %7, align 8, !tbaa !14
  store i64 %2, ptr %8, align 8, !tbaa !18
  store i32 %3, ptr %9, align 4, !tbaa !20
  store i32 %4, ptr %10, align 4, !tbaa !20
  %12 = load ptr, ptr %6, align 8
  call void @llvm.lifetime.start.p0(i64 4, ptr %11) #3
  store i32 0, ptr %11, align 4, !tbaa !20
  br label %13

13:                                               ; preds = %33, %5
  %14 = load i32, ptr %11, align 4, !tbaa !20
  %15 = load i32, ptr %9, align 4, !tbaa !20
  %16 = load i32, ptr %10, align 4, !tbaa !20
  %17 = sub i32 %15, %16
  %18 = add i32 %17, 1
  %19 = icmp ult i32 %14, %18
  br i1 %19, label %21, label %20

20:                                               ; preds = %13
  call void @llvm.lifetime.end.p0(i64 4, ptr %11) #3
  br label %36

21:                                               ; preds = %13
  %22 = load ptr, ptr %7, align 8, !tbaa !14
  %23 = load i32, ptr %10, align 4, !tbaa !20
  %24 = load i32, ptr %11, align 4, !tbaa !20
  %25 = add i32 %23, %24
  %26 = load i64, ptr %8, align 8, !tbaa !18
  %27 = load i32, ptr %11, align 4, !tbaa !20
  %28 = zext i32 %27 to i64
  %29 = shl i64 1, %28
  %30 = and i64 %26, %29
  %31 = icmp ne i64 %30, 0
  %32 = select i1 %31, i32 2, i32 1
  call void @_ZN11tbv_manager3setER3tbvj4tbit(ptr noundef nonnull align 8 dereferenceable(552) %12, ptr noundef nonnull align 4 dereferenceable(4) %22, i32 noundef %25, i32 noundef %32)
  br label %33

33:                                               ; preds = %21
  %34 = load i32, ptr %11, align 4, !tbaa !20
  %35 = add i32 %34, 1
  store i32 %35, ptr %11, align 4, !tbaa !20
  br label %13, !llvm.loop !28

36:                                               ; preds = %20
  ret void
}

; Function Attrs: mustprogress uwtable
define linkonce_odr hidden noundef i64 @_ZNK8rational10get_uint64Ev(ptr noundef nonnull align 8 dereferenceable(32) %0) #6 comdat align 2 {
  %2 = alloca ptr, align 8
  store ptr %0, ptr %2, align 8, !tbaa !41
  %3 = load ptr, ptr %2, align 8
  %4 = call noundef nonnull align 8 dereferenceable(728) ptr @_ZN8rational1mEv()
  %5 = getelementptr inbounds nuw %class.rational, ptr %3, i32 0, i32 0
  %6 = call noundef i64 @_ZNK11mpq_managerILb1EE10get_uint64ERK3mpq(ptr noundef nonnull align 8 dereferenceable(728) %4, ptr noundef nonnull align 8 dereferenceable(32) %5)
  ret i64 %6
}

; Function Attrs: mustprogress uwtable
define linkonce_odr hidden noundef zeroext i1 @_ZNK8rational9is_uint64Ev(ptr noundef nonnull align 8 dereferenceable(32) %0) #6 comdat align 2 {
  %2 = alloca ptr, align 8
  store ptr %0, ptr %2, align 8, !tbaa !41
  %3 = load ptr, ptr %2, align 8
  %4 = call noundef nonnull align 8 dereferenceable(728) ptr @_ZN8rational1mEv()
  %5 = getelementptr inbounds nuw %class.rational, ptr %3, i32 0, i32 0
  %6 = call noundef zeroext i1 @_ZNK11mpq_managerILb1EE9is_uint64ERK3mpq(ptr noundef nonnull align 8 dereferenceable(728) %4, ptr noundef nonnull align 8 dereferenceable(32) %5)
  ret i1 %6
}

; Function Attrs: mustprogress uwtable
define hidden void @_ZN11tbv_manager3setER3tbvRK8rationaljj(ptr noundef nonnull align 8 dereferenceable(552) %0, ptr noundef nonnull align 4 dereferenceable(4) %1, ptr noundef nonnull align 8 dereferenceable(32) %2, i32 noundef %3, i32 noundef %4) #6 align 2 {
  %6 = alloca ptr, align 8
  %7 = alloca ptr, align 8
  %8 = alloca ptr, align 8
  %9 = alloca i32, align 4
  %10 = alloca i32, align 4
  %11 = alloca i32, align 4
  store ptr %0, ptr %6, align 8, !tbaa !7
  store ptr %1, ptr %7, align 8, !tbaa !14
  store ptr %2, ptr %8, align 8, !tbaa !41
  store i32 %3, ptr %9, align 4, !tbaa !20
  store i32 %4, ptr %10, align 4, !tbaa !20
  %12 = load ptr, ptr %6, align 8
  %13 = load ptr, ptr %8, align 8, !tbaa !41
  %14 = call noundef zeroext i1 @_ZNK8rational9is_uint64Ev(ptr noundef nonnull align 8 dereferenceable(32) %13)
  br i1 %14, label %15, label %21

15:                                               ; preds = %5
  %16 = load ptr, ptr %7, align 8, !tbaa !14
  %17 = load ptr, ptr %8, align 8, !tbaa !41
  %18 = call noundef i64 @_ZNK8rational10get_uint64Ev(ptr noundef nonnull align 8 dereferenceable(32) %17)
  %19 = load i32, ptr %9, align 4, !tbaa !20
  %20 = load i32, ptr %10, align 4, !tbaa !20
  call void @_ZN11tbv_manager3setER3tbvmjj(ptr noundef nonnull align 8 dereferenceable(552) %12, ptr noundef nonnull align 4 dereferenceable(4) %16, i64 noundef %18, i32 noundef %19, i32 noundef %20)
  br label %42

21:                                               ; preds = %5
  call void @llvm.lifetime.start.p0(i64 4, ptr %11) #3
  store i32 0, ptr %11, align 4, !tbaa !20
  br label %22

22:                                               ; preds = %39, %21
  %23 = load i32, ptr %11, align 4, !tbaa !20
  %24 = load i32, ptr %9, align 4, !tbaa !20
  %25 = load i32, ptr %10, align 4, !tbaa !20
  %26 = sub i32 %24, %25
  %27 = add i32 %26, 1
  %28 = icmp ult i32 %23, %27
  br i1 %28, label %30, label %29

29:                                               ; preds = %22
  call void @llvm.lifetime.end.p0(i64 4, ptr %11) #3
  br label %42

30:                                               ; preds = %22
  %31 = load ptr, ptr %7, align 8, !tbaa !14
  %32 = load i32, ptr %10, align 4, !tbaa !20
  %33 = load i32, ptr %11, align 4, !tbaa !20
  %34 = add i32 %32, %33
  %35 = load ptr, ptr %8, align 8, !tbaa !41
  %36 = load i32, ptr %11, align 4, !tbaa !20
  %37 = call noundef zeroext i1 @_ZNK8rational7get_bitEj(ptr noundef nonnull align 8 dereferenceable(32) %35, i32 noundef %36)
  %38 = select i1 %37, i32 2, i32 1
  call void @_ZN11tbv_manager3setER3tbvj4tbit(ptr noundef nonnull align 8 dereferenceable(552) %12, ptr noundef nonnull align 4 dereferenceable(4) %31, i32 noundef %34, i32 noundef %38)
  br label %39

39:                                               ; preds = %30
  %40 = load i32, ptr %11, align 4, !tbaa !20
  %41 = add i32 %40, 1
  store i32 %41, ptr %11, align 4, !tbaa !20
  br label %22, !llvm.loop !43

42:                                               ; preds = %15, %29
  ret void
}