; Function Attrs: mustprogress uwtable
define hidden void @_ZN11tbv_manager3setER3tbvRK8rationaljj(ptr noundef nonnull readnone align 8 captures(none) dereferenceable(552) %0, ptr noundef nonnull align 4 captures(none) dereferenceable(4) %1, ptr noundef nonnull align 8 dereferenceable(32) %2, i32 noundef %3, i32 noundef %4) local_unnamed_addr #5 align 2 {
  %6 = getelementptr inbounds nuw i8, ptr %2, i64 16
  %7 = getelementptr inbounds nuw i8, ptr %2, i64 20
  %8 = load i8, ptr %7, align 4
  %9 = and i8 %8, 1
  %10 = icmp eq i8 %9, 0
  %11 = load i32, ptr %6, align 8
  %12 = icmp eq i32 %11, 1
  %13 = select i1 %10, i1 %12, i1 false
  br i1 %13, label %16, label %_ZNK8rational9is_uint64Ev.exit.preheader

_ZNK8rational9is_uint64Ev.exit.preheader:         ; preds = %16, %5
  %14 = add i32 %3, 1
  %.not = icmp eq i32 %14, %4
  br i1 %.not, label %_ZN11tbv_manager3setER3tbvmjj.exit, label %_ZNK8rational9is_uint64Ev.exit.preheader16

_ZNK8rational9is_uint64Ev.exit.preheader16:       ; preds = %_ZNK8rational9is_uint64Ev.exit.preheader
  %15 = sub i32 %14, %4
  %umax = tail call i32 @llvm.umax.i32(i32 %15, i32 1)
  br label %_ZNK8rational9is_uint64Ev.exit

16:                                               ; preds = %5
  %17 = load ptr, ptr @_ZN8rational13g_mpq_managerE, align 8, !tbaa !29
  %18 = tail call noundef zeroext i1 @_ZNK11mpz_managerILb1EE9is_uint64ERK3mpz(ptr noundef nonnull align 8 dereferenceable(728) %17, ptr noundef nonnull align 8 dereferenceable(32) %2)
  br i1 %18, label %19, label %_ZNK8rational9is_uint64Ev.exit.preheader

19:                                               ; preds = %16
  %20 = load ptr, ptr @_ZN8rational13g_mpq_managerE, align 8, !tbaa !29
  %21 = tail call noundef i64 @_ZNK11mpz_managerILb1EE10get_uint64ERK3mpz(ptr noundef nonnull align 8 dereferenceable(728) %20, ptr noundef nonnull align 8 dereferenceable(32) %2)
  %22 = add i32 %3, 1
  %.not10.i = icmp eq i32 %22, %4
  br i1 %.not10.i, label %_ZN11tbv_manager3setER3tbvmjj.exit, label %.lr.ph.preheader.i

.lr.ph.preheader.i:                               ; preds = %19
  %23 = sub i32 %22, %4
  %umax.i = tail call i32 @llvm.umax.i32(i32 %23, i32 1)
  %wide.trip.count.i = zext i32 %umax.i to i64
  br label %.lr.ph.i

.lr.ph.i:                                         ; preds = %.lr.ph.i, %.lr.ph.preheader.i
  %indvars.iv.i = phi i64 [ 0, %.lr.ph.preheader.i ], [ %indvars.iv.next.i, %.lr.ph.i ]
  %24 = trunc nuw i64 %indvars.iv.i to i32
  %25 = add i32 %4, %24
  %26 = shl nuw i64 1, %indvars.iv.i
  %27 = and i64 %26, %21
  %.not.i = icmp eq i64 %27, 0
  %28 = select i1 %.not.i, i32 1, i32 2
  %29 = shl i32 %25, 1
  %30 = shl nuw i32 %28, 30
  %sext.i.i = ashr i32 %30, 31
  %31 = lshr i32 %29, 5
  %32 = zext nneg i32 %31 to i64
  %33 = getelementptr inbounds nuw [1 x i32], ptr %1, i64 0, i64 %32
  %34 = load i32, ptr %33, align 4, !tbaa !17
  %35 = xor i32 %sext.i.i, %34
  %36 = and i32 %29, 30
  %37 = shl nuw nsw i32 1, %36
  %38 = and i32 %35, %37
  %39 = and i32 %28, 1
  %sext7.i.i = sub nsw i32 0, %39
  %40 = xor i32 %34, %sext7.i.i
  %41 = shl nuw i32 2, %36
  %42 = and i32 %40, %41
  %43 = or disjoint i32 %38, %42
  %44 = xor i32 %43, %34
  store i32 %44, ptr %33, align 4, !tbaa !17
  %indvars.iv.next.i = add nuw nsw i64 %indvars.iv.i, 1
  %exitcond.not.i = icmp eq i64 %indvars.iv.next.i, %wide.trip.count.i
  br i1 %exitcond.not.i, label %_ZN11tbv_manager3setER3tbvmjj.exit, label %.lr.ph.i, !llvm.loop !20

_ZNK8rational9is_uint64Ev.exit:                   ; preds = %_ZNK8rational9is_uint64Ev.exit.preheader16, %_ZNK8rational9is_uint64Ev.exit
  %.015 = phi i32 [ %65, %_ZNK8rational9is_uint64Ev.exit ], [ 0, %_ZNK8rational9is_uint64Ev.exit.preheader16 ]
  %45 = add i32 %.015, %4
  %46 = load ptr, ptr @_ZN8rational13g_mpq_managerE, align 8, !tbaa !29
  %47 = tail call noundef zeroext i1 @_ZN11mpz_managerILb1EE7get_bitERK3mpzj(ptr noundef nonnull align 8 dereferenceable(728) %46, ptr noundef nonnull align 8 dereferenceable(32) %2, i32 noundef %.015)
  %48 = select i1 %47, i32 2, i32 1
  %49 = shl i32 %45, 1
  %50 = shl nuw i32 %48, 30
  %sext.i = ashr i32 %50, 31
  %51 = lshr i32 %49, 5
  %52 = zext nneg i32 %51 to i64
  %53 = getelementptr inbounds nuw [1 x i32], ptr %1, i64 0, i64 %52
  %54 = load i32, ptr %53, align 4, !tbaa !17
  %55 = xor i32 %sext.i, %54
  %56 = and i32 %49, 30
  %57 = shl nuw nsw i32 1, %56
  %58 = and i32 %55, %57
  %59 = and i32 %48, 1
  %sext7.i = sub nsw i32 0, %59
  %60 = xor i32 %54, %sext7.i
  %61 = shl nuw i32 2, %56
  %62 = and i32 %60, %61
  %63 = or disjoint i32 %58, %62
  %64 = xor i32 %63, %54
  store i32 %64, ptr %53, align 4, !tbaa !17
  %65 = add nuw i32 %.015, 1
  %exitcond.not = icmp eq i32 %65, %umax
  br i1 %exitcond.not, label %_ZN11tbv_manager3setER3tbvmjj.exit, label %_ZNK8rational9is_uint64Ev.exit, !llvm.loop !31

_ZN11tbv_manager3setER3tbvmjj.exit:               ; preds = %_ZNK8rational9is_uint64Ev.exit, %.lr.ph.i, %_ZNK8rational9is_uint64Ev.exit.preheader, %19
  ret void
}